; Function Attrs: nofree norecurse nosync nounwind memory(readwrite, inaccessiblemem: none) uwtable
define void @Wlc_NtkCleanMarks(ptr noundef readonly captures(none) %0) local_unnamed_addr #14 {
  %2 = getelementptr i8, ptr %0, i64 648
  %.val56 = load i32, ptr %2, align 8
  %3 = icmp sgt i32 %.val56, 1
  br i1 %3, label %.lr.ph, label %.critedge

.lr.ph:                                           ; preds = %1
  %4 = getelementptr i8, ptr %0, i64 640
  br label %5

5:                                                ; preds = %.lr.ph, %5
  %indvars.iv = phi i64 [ 1, %.lr.ph ], [ %indvars.iv.next, %5 ]
  %.val = load ptr, ptr %4, align 8
  %6 = getelementptr inbounds nuw %struct.Wlc_Obj_t_, ptr %.val, i64 %indvars.iv
  %7 = load i16, ptr %6, align 8
  %8 = and i16 %7, -129
  store i16 %8, ptr %6, align 8
  %indvars.iv.next = add nuw nsw i64 %indvars.iv, 1
  %.val5 = load i32, ptr %2, align 8
  %9 = sext i32 %.val5 to i64
  %10 = icmp slt i64 %indvars.iv.next, %9
  br i1 %10, label %5, label %.critedge, !llvm.loop !26

.critedge:                                        ; preds = %5, %1
  ret void
}